target datalayout = "e-m:e-p270:32:32-p271:32:32-p272:64:64-i64:64-i128:128-f80:128-n8:16:32:64-S128"
target triple = "x86_64-unknown-linux-gnu"

%struct.buf_writer_t = type { ptr, ptr, ptr, i64, i64, i8 }

; Function Attrs: nounwind uwtable
define internal void @buf_writer_assert(ptr noundef %buf_writer) #0 {
entry:
  %buf_writer.addr = alloca ptr, align 8
  store ptr %buf_writer, ptr %buf_writer.addr, align 8
  br label %do.body

do.body:                                          ; preds = %entry
  br label %do.end

do.end:                                           ; preds = %do.body
  br label %do.body1

do.body1:                                         ; preds = %do.end
  br label %do.end2

do.end2:                                          ; preds = %do.body1
  %0 = load ptr, ptr %buf_writer.addr, align 8
  %buf = getelementptr inbounds %struct.buf_writer_t, ptr %0, i32 0, i32 2
  %1 = load ptr, ptr %buf, align 8
  %cmp = icmp ne ptr %1, null
  br i1 %cmp, label %if.then, label %if.else

if.then:                                          ; preds = %do.end2
  br label %do.body3

do.body3:                                         ; preds = %if.then
  br label %do.end4

do.end4:                                          ; preds = %do.body3
  br label %if.end

if.else:                                          ; preds = %do.end2
  br label %do.body5

do.body5:                                         ; preds = %if.else
  br label %do.end6

do.end6:                                          ; preds = %do.body5
  br label %do.body7

do.body7:                                         ; preds = %do.end6
  br label %do.end8

do.end8:                                          ; preds = %do.body7
  br label %if.end

if.end:                                           ; preds = %do.end8, %do.end4
  br label %do.body9

do.body9:                                         ; preds = %if.end
  br label %do.end10

do.end10:                                         ; preds = %do.body9
  ret void
}

; Function Attrs: nounwind uwtable
define hidden void @buf_writer_flush(ptr noundef %buf_writer) #0 {
entry:
  %buf_writer.addr = alloca ptr, align 8
  store ptr %buf_writer, ptr %buf_writer.addr, align 8
  %0 = load ptr, ptr %buf_writer.addr, align 8
  call void @buf_writer_assert(ptr noundef %0)
  %1 = load ptr, ptr %buf_writer.addr, align 8
  %buf = getelementptr inbounds %struct.buf_writer_t, ptr %1, i32 0, i32 2
  %2 = load ptr, ptr %buf, align 8
  %cmp = icmp eq ptr %2, null
  br i1 %cmp, label %if.then, label %if.end

if.then:                                          ; preds = %entry
  br label %return

if.end:                                           ; preds = %entry
  %3 = load ptr, ptr %buf_writer.addr, align 8
  %buf1 = getelementptr inbounds %struct.buf_writer_t, ptr %3, i32 0, i32 2
  %4 = load ptr, ptr %buf1, align 8
  %5 = load ptr, ptr %buf_writer.addr, align 8
  %buf_end = getelementptr inbounds %struct.buf_writer_t, ptr %5, i32 0, i32 4
  %6 = load i64, ptr %buf_end, align 8
  %arrayidx = getelementptr inbounds i8, ptr %4, i64 %6
  store i8 0, ptr %arrayidx, align 1
  %7 = load ptr, ptr %buf_writer.addr, align 8
  %write_cb = getelementptr inbounds %struct.buf_writer_t, ptr %7, i32 0, i32 0
  %8 = load ptr, ptr %write_cb, align 8
  %9 = load ptr, ptr %buf_writer.addr, align 8
  %cbopaque = getelementptr inbounds %struct.buf_writer_t, ptr %9, i32 0, i32 1
  %10 = load ptr, ptr %cbopaque, align 8
  %11 = load ptr, ptr %buf_writer.addr, align 8
  %buf2 = getelementptr inbounds %struct.buf_writer_t, ptr %11, i32 0, i32 2
  %12 = load ptr, ptr %buf2, align 8
  call void %8(ptr noundef %10, ptr noundef %12)
  %13 = load ptr, ptr %buf_writer.addr, align 8
  %buf_end3 = getelementptr inbounds %struct.buf_writer_t, ptr %13, i32 0, i32 4
  store i64 0, ptr %buf_end3, align 8
  %14 = load ptr, ptr %buf_writer.addr, align 8
  call void @buf_writer_assert(ptr noundef %14)
  br label %return

return:                                           ; preds = %if.end, %if.then
  ret void
}