; Function Attrs: nounwind uwtable
define hidden void @buf_writer_flush(ptr nocapture noundef %buf_writer) local_unnamed_addr #0 {
entry:
  %buf = getelementptr inbounds i8, ptr %buf_writer, i64 16
  %0 = load ptr, ptr %buf, align 8
  %cmp = icmp eq ptr %0, null
  br i1 %cmp, label %return, label %if.end

if.end:                                           ; preds = %entry
  %buf_end = getelementptr inbounds i8, ptr %buf_writer, i64 32
  %1 = load i64, ptr %buf_end, align 8
  %arrayidx = getelementptr inbounds i8, ptr %0, i64 %1
  store i8 0, ptr %arrayidx, align 1
  %2 = load ptr, ptr %buf_writer, align 8
  %cbopaque = getelementptr inbounds i8, ptr %buf_writer, i64 8
  %3 = load ptr, ptr %cbopaque, align 8
  %4 = load ptr, ptr %buf, align 8
  tail call void %2(ptr noundef %3, ptr noundef %4) #7
  store i64 0, ptr %buf_end, align 8
  br label %return

return:                                           ; preds = %entry, %if.end
  ret void
}